; Function Attrs: nounwind uwtable
define ptr @agconcat(ptr noundef %0, ptr noundef %1, ptr noundef %2) local_unnamed_addr #0 {
  store ptr %1, ptr @aagin, align 8, !tbaa !22
  store ptr %0, ptr @G, align 8, !tbaa !19
  store ptr null, ptr @Ag_G_global, align 8, !tbaa !19
  %.not = icmp eq ptr %2, null
  %4 = select i1 %.not, ptr @AgDefaultDisc, ptr %2
  store ptr %4, ptr @Disc, align 8, !tbaa !20
  tail call void @aglexinit(ptr noundef nonnull %4, ptr noundef %1) #19
  %5 = tail call i32 @aagparse()
  %6 = load ptr, ptr @Ag_G_global, align 8, !tbaa !19
  %7 = icmp eq ptr %6, null
  br i1 %7, label %8, label %9

8:                                                ; preds = %3
  tail call void @aglexbad() #19
  %.pre = load ptr, ptr @Ag_G_global, align 8, !tbaa !19
  br label %9

9:                                                ; preds = %8, %3
  %10 = phi ptr [ %.pre, %8 ], [ %6, %3 ]
  ret ptr %10
}